; Function Attrs: mustprogress uwtable
define hidden void @_ZN4cvc58internal6theory11quantifiers17MasterNotifyClass16eqNotifyNewClassENS0_12NodeTemplateILb0EEE(ptr nocapture noundef nonnull readonly align 8 dereferenceable(16) %this, ptr nocapture noundef readonly %t) unnamed_addr #4 align 2 personality ptr @__gxx_personality_v0 {
entry:
  %agg.tmp = alloca %"class.cvc5::internal::NodeTemplate", align 8
  %d_quantEngine = getelementptr inbounds i8, ptr %this, i64 8
  %0 = load ptr, ptr %d_quantEngine, align 8
  %1 = load ptr, ptr %t, align 8
  store ptr %1, ptr %agg.tmp, align 8
  call void @_ZN4cvc58internal6theory17QuantifiersEngine16eqNotifyNewClassENS0_12NodeTemplateILb0EEE(ptr noundef nonnull align 8 dereferenceable(356) %0, ptr noundef nonnull %agg.tmp)
  ret void
}